target datalayout = "e-m:e-p270:32:32-p271:32:32-p272:64:64-i64:64-i128:128-f80:128-n8:16:32:64-S128"
target triple = "x86_64-pc-linux-gnu"

%struct.lexbor_mraw_t = type { ptr, ptr, i64 }

; Function Attrs: nounwind uwtable
define hidden i32 @lexbor_mraw_init(ptr noundef %0, i64 noundef %1) #0 {
  %3 = alloca i32, align 4
  %4 = alloca ptr, align 8
  %5 = alloca i64, align 8
  %6 = alloca i32, align 4
  store ptr %0, ptr %4, align 8
  store i64 %1, ptr %5, align 8
  %7 = load ptr, ptr %4, align 8
  %8 = icmp eq ptr %7, null
  br i1 %8, label %9, label %10

9:                                                ; preds = %2
  store i32 3, ptr %3, align 4
  br label %43

10:                                               ; preds = %2
  %11 = load i64, ptr %5, align 8
  %12 = icmp eq i64 %11, 0
  br i1 %12, label %13, label %14

13:                                               ; preds = %10
  store i32 9, ptr %3, align 4
  br label %43

14:                                               ; preds = %10
  %15 = call ptr @lexbor_mem_create()
  %16 = load ptr, ptr %4, align 8
  %17 = getelementptr inbounds %struct.lexbor_mraw_t, ptr %16, i32 0, i32 0
  store ptr %15, ptr %17, align 8
  %18 = load ptr, ptr %4, align 8
  %19 = getelementptr inbounds %struct.lexbor_mraw_t, ptr %18, i32 0, i32 0
  %20 = load ptr, ptr %19, align 8
  %21 = load i64, ptr %5, align 8
  %22 = add i64 %21, 8
  %23 = call i32 @lexbor_mem_init(ptr noundef %20, i64 noundef %22)
  store i32 %23, ptr %6, align 4
  %24 = load i32, ptr %6, align 4
  %25 = icmp ne i32 %24, 0
  br i1 %25, label %26, label %28

26:                                               ; preds = %14
  %27 = load i32, ptr %6, align 4
  store i32 %27, ptr %3, align 4
  br label %43

28:                                               ; preds = %14
  %29 = call ptr @lexbor_bst_create()
  %30 = load ptr, ptr %4, align 8
  %31 = getelementptr inbounds %struct.lexbor_mraw_t, ptr %30, i32 0, i32 1
  store ptr %29, ptr %31, align 8
  %32 = load ptr, ptr %4, align 8
  %33 = getelementptr inbounds %struct.lexbor_mraw_t, ptr %32, i32 0, i32 1
  %34 = load ptr, ptr %33, align 8
  %35 = call i32 @lexbor_bst_init(ptr noundef %34, i64 noundef 512)
  store i32 %35, ptr %6, align 4
  %36 = load i32, ptr %6, align 4
  %37 = icmp ne i32 %36, 0
  br i1 %37, label %38, label %40

38:                                               ; preds = %28
  %39 = load i32, ptr %6, align 4
  store i32 %39, ptr %3, align 4
  br label %43

40:                                               ; preds = %28
  %41 = load ptr, ptr %4, align 8
  %42 = getelementptr inbounds %struct.lexbor_mraw_t, ptr %41, i32 0, i32 2
  store i64 0, ptr %42, align 8
  store i32 0, ptr %3, align 4
  br label %43

43:                                               ; preds = %40, %38, %26, %13, %9
  %44 = load i32, ptr %3, align 4
  ret i32 %44
}