; Function Attrs: nounwind uwtable
define hidden i32 @lexbor_mraw_init(ptr noundef writeonly %0, i64 noundef %1) local_unnamed_addr #0 {
  %3 = icmp eq ptr %0, null
  br i1 %3, label %16, label %4

4:                                                ; preds = %2
  %5 = icmp eq i64 %1, 0
  br i1 %5, label %16, label %6

6:                                                ; preds = %4
  %7 = tail call ptr @lexbor_mem_create() #7
  store ptr %7, ptr %0, align 8
  %8 = add i64 %1, 8
  %9 = tail call i32 @lexbor_mem_init(ptr noundef %7, i64 noundef %8) #7
  %.not = icmp eq i32 %9, 0
  br i1 %.not, label %10, label %16

10:                                               ; preds = %6
  %11 = tail call ptr @lexbor_bst_create() #7
  %12 = getelementptr inbounds i8, ptr %0, i64 8
  store ptr %11, ptr %12, align 8
  %13 = tail call i32 @lexbor_bst_init(ptr noundef %11, i64 noundef 512) #7
  %.not16 = icmp eq i32 %13, 0
  br i1 %.not16, label %14, label %16

14:                                               ; preds = %10
  %15 = getelementptr inbounds i8, ptr %0, i64 16
  store i64 0, ptr %15, align 8
  br label %16

16:                                               ; preds = %10, %6, %4, %2, %14
  %.0 = phi i32 [ 0, %14 ], [ 3, %2 ], [ 9, %4 ], [ %9, %6 ], [ %13, %10 ]
  ret i32 %.0
}